; Function Attrs: mustprogress nofree norecurse nounwind willreturn uwtable
define hidden noundef i64 @_ZN18MutatorAllocRegion21used_in_alloc_regionsEv(ptr noundef nonnull align 8 dereferenceable(56) %0) local_unnamed_addr #5 align 2 {
  %2 = getelementptr inbounds i8, ptr %0, i64 8
  %3 = load volatile ptr, ptr %2, align 8
  %4 = load ptr, ptr @_ZN13G1AllocRegion13_dummy_regionE, align 8
  %5 = icmp eq ptr %3, %4
  %.not10 = icmp eq ptr %3, null
  %.not = or i1 %.not10, %5
  br i1 %.not, label %13, label %6

6:                                                ; preds = %1
  %7 = load ptr, ptr %3, align 8
  %8 = getelementptr inbounds i8, ptr %3, i64 16
  %9 = load volatile ptr, ptr %8, align 8
  %10 = ptrtoint ptr %9 to i64
  %11 = ptrtoint ptr %7 to i64
  %12 = sub i64 %10, %11
  br label %13

13:                                               ; preds = %6, %1
  %.0 = phi i64 [ %12, %6 ], [ 0, %1 ]
  %14 = getelementptr inbounds i8, ptr %0, i64 48
  %15 = load volatile ptr, ptr %14, align 8
  %.not9 = icmp eq ptr %15, null
  br i1 %.not9, label %24, label %16

16:                                               ; preds = %13
  %17 = load ptr, ptr %15, align 8
  %18 = getelementptr inbounds i8, ptr %15, i64 16
  %19 = load volatile ptr, ptr %18, align 8
  %20 = ptrtoint ptr %19 to i64
  %21 = ptrtoint ptr %17 to i64
  %22 = sub i64 %.0, %21
  %23 = add i64 %22, %20
  br label %24

24:                                               ; preds = %16, %13
  %.1 = phi i64 [ %23, %16 ], [ %.0, %13 ]
  ret i64 %.1
}